; Function Attrs: mustprogress nofree norecurse nosync nounwind memory(argmem: readwrite) uwtable
define void @_ZN22InteractionDefinitions5clearEv(ptr noundef nonnull align 8 captures(none) dereferenceable(2760) %0) local_unnamed_addr #16 align 2 personality ptr @__gxx_personality_v0 {
  br label %13

2:                                                ; preds = %_ZN15InteractionList5clearEv.exit
  %3 = getelementptr inbounds nuw i8, ptr %0, i64 16
  %4 = load ptr, ptr %3, align 8, !tbaa !83
  %5 = getelementptr inbounds nuw i8, ptr %0, i64 24
  %6 = load ptr, ptr %5, align 8, !tbaa !93
  %.not.i.i = icmp eq ptr %6, %4
  br i1 %.not.i.i, label %_ZNSt6vectorI9t_iparamsSaIS0_EE5clearEv.exit, label %7

7:                                                ; preds = %2
  store ptr %4, ptr %5, align 8, !tbaa !93
  br label %_ZNSt6vectorI9t_iparamsSaIS0_EE5clearEv.exit

_ZNSt6vectorI9t_iparamsSaIS0_EE5clearEv.exit:     ; preds = %2, %7
  %8 = getelementptr inbounds nuw i8, ptr %0, i64 40
  %9 = load ptr, ptr %8, align 8, !tbaa !83
  %10 = getelementptr inbounds nuw i8, ptr %0, i64 48
  %11 = load ptr, ptr %10, align 8, !tbaa !93
  %.not.i.i8 = icmp eq ptr %11, %9
  br i1 %.not.i.i8, label %_ZNSt6vectorI9t_iparamsSaIS0_EE5clearEv.exit9, label %12

12:                                               ; preds = %_ZNSt6vectorI9t_iparamsSaIS0_EE5clearEv.exit
  store ptr %9, ptr %10, align 8, !tbaa !93
  br label %_ZNSt6vectorI9t_iparamsSaIS0_EE5clearEv.exit9

_ZNSt6vectorI9t_iparamsSaIS0_EE5clearEv.exit9:    ; preds = %_ZNSt6vectorI9t_iparamsSaIS0_EE5clearEv.exit, %12
  ret void

13:                                               ; preds = %1, %_ZN15InteractionList5clearEv.exit
  %.0.idx11 = phi i64 [ 64, %1 ], [ %.0.add, %_ZN15InteractionList5clearEv.exit ]
  %.0.ptr = getelementptr inbounds nuw i8, ptr %0, i64 %.0.idx11
  %14 = load ptr, ptr %.0.ptr, align 8, !tbaa !35
  %15 = getelementptr inbounds nuw i8, ptr %.0.ptr, i64 8
  %16 = load ptr, ptr %15, align 8, !tbaa !32
  %.not.i.i.i = icmp eq ptr %16, %14
  br i1 %.not.i.i.i, label %_ZN15InteractionList5clearEv.exit, label %17

17:                                               ; preds = %13
  store ptr %14, ptr %15, align 8, !tbaa !32
  br label %_ZN15InteractionList5clearEv.exit

_ZN15InteractionList5clearEv.exit:                ; preds = %13, %17
  %.0.add = add nuw nsw i64 %.0.idx11, 24
  %.not = icmp eq i64 %.0.add, 2344
  br i1 %.not, label %2, label %13
}